(dp1
S'OriginalConfig'
p2
ccopy_reg
_reconstructor
p3
(cWMCore.Configuration
Configuration
p4
c__builtin__
object
p5
NtRp6
(dp7
S'Site'
p8
g3
(cWMCore.Configuration
ConfigSection
p9
g5
NtRp10
(dp11
S'_internal_skipChecks'
p12
I00
sS'_internal_documentation'
p13
S''
sS'_internal_settings'
p14
c__builtin__
set
p15
((lp16
S'blacklist'
p17
aS'storageSite'
p18
atRp19
sS'_internal_name'
p20
g8
sS'_internal_docstrings'
p21
(dp22
sg17
(lp23
S'T3_IT_Bologna'
p24
aS'T3_US_UMiss'
p25
asS'_internal_children'
p26
g15
((ltRp27
sg18
S'T3_US_FNALLPC'
p28
sS'_internal_parent_ref'
p29
NsbsS'_internal_sections'
p30
(lp31
S'General'
p32
aS'JobType'
p33
aS'Data'
p34
aS'User'
p35
ag8
asg32
g3
(g9
g5
NtRp36
(dp37
g12
I00
sg13
S''
sg14
g15
((lp38
S'requestName'
p39
atRp40
sg20
g32
sg21
(dp41
sg26
g15
((ltRp42
sg39
S'gof_KS_v2'
p43
sg29
NsbsS'_internal_webapps'
p44
(lp45
sg35
g3
(g9
g5
NtRp46
(dp47
g12
I00
sg13
S''
sg14
g15
((ltRp48
sg20
g35
sg21
(dp49
sg26
g15
((ltRp50
sg29
NsbsS'_internal_components'
p51
(lp52
sg34
g3
(g9
g5
NtRp53
(dp54
S'outputDatasetTag'
p55
g43
sg12
I00
sS'unitsPerJob'
p56
I1
sg13
S''
sg14
g15
((lp57
g55
aS'publication'
p58
ag56
aS'splitting'
p59
aS'outLFNDirBase'
p60
aS'outputPrimaryDataset'
p61
aS'totalUnits'
p62
atRp63
sg60
S'/store/user/dsperka/Combine_Tutorial_2018/'
p64
sg20
g34
sg59
S'EventBased'
p65
sg21
(dp66
sg26
g15
((ltRp67
sg58
I00
sg61
S'Combine'
p68
sg29
Nsg62
I100
sbsg33
g3
(g9
g5
NtRp69
(dp70
S'outputFiles'
p71
(lp72
S'combine_output.tar'
p73
asg12
I00
sg13
S''
sg14
g15
((lp74
S'psetName'
p75
aS'pluginName'
p76
aS'inputFiles'
p77
ag71
aS'scriptExe'
p78
atRp79
sg20
g33
sg78
S'crab_gof_KS_v2.sh'
p80
sg21
(dp81
sg76
S'PrivateMC'
p82
sg26
g15
((ltRp83
sg75
S'/uscms_data/d2/dsperka/CMSSW_8_1_0/src/CombineHarvester/CombineTools/scripts/do_nothing_cfg.py'
p84
sg29
Nsg77
(lp85
S'/uscms_data/d2/dsperka/CMSSW_8_1_0/src/CombineHarvester/CombineTools/scripts/FrameworkJobReport.xml'
p86
aS'/uscms_data/d2/dsperka/CMSSW_8_1_0/src/CombineHarvester/CombineTools/scripts/copyRemoteWorkspace.sh'
p87
aS'/uscms_data/d2/dsperka/CMSSW_8_1_0/bin/slc6_amd64_gcc530/combine'
p88
aS'comb_2017_htt_slim.root'
p89
asbsbsS'voGroup'
p90
S''
sS'Server'
p91
S'cmsweb.cern.ch'
p92
sS'instance'
p93
S'prod'
p94
sS'RequestName'
p95
V181016_220334:dsperka_crab_gof_KS_v2
p96
sS'voRole'
p97
S'NULL'
p98
sS'Port'
p99
S''
s.